; Function Attrs: nounwind uwtable
define hidden void @mbedtls_ccm_free(ptr noundef %0) local_unnamed_addr #2 {
  %2 = icmp eq ptr %0, null
  br i1 %2, label %5, label %3

3:                                                ; preds = %1
  %4 = getelementptr inbounds nuw i8, ptr %0, i64 72
  tail call void @mbedtls_cipher_free(ptr noundef nonnull %4) #10
  tail call void @mbedtls_platform_zeroize(ptr noundef nonnull %0, i64 noundef 176) #10
  br label %5

5:                                                ; preds = %1, %3
  ret void
}